target datalayout = "e-m:e-p270:32:32-p271:32:32-p272:64:64-i64:64-i128:128-f80:128-n8:16:32:64-S128"
target triple = "x86_64-pc-linux-gnu"

@.str.47 = private unnamed_addr constant [3 x i8] c"%p\00", align 1
@.str.48 = private unnamed_addr constant [6 x i8] c"pid%u\00", align 1
@.str.49 = private unnamed_addr constant [3 x i8] c"%t\00", align 1
@.str.50 = private unnamed_addr constant [1 x i8] zeroinitializer, align 1

; Function Attrs: mustprogress nounwind uwtable
define internal noundef ptr @_ZL22make_log_name_internalPKcS0_iS0_(ptr noundef %0, ptr noundef %1, i32 noundef %2, ptr noundef %3) #1 {
  %5 = alloca ptr, align 8
  %6 = alloca ptr, align 8
  %7 = alloca ptr, align 8
  %8 = alloca i32, align 4
  %9 = alloca ptr, align 8
  %10 = alloca ptr, align 8
  %11 = alloca i8, align 1
  %12 = alloca ptr, align 8
  %13 = alloca [32 x i8], align 16
  %14 = alloca ptr, align 8
  %15 = alloca i64, align 8
  %16 = alloca ptr, align 8
  %17 = alloca i32, align 4
  %18 = alloca i32, align 4
  %19 = alloca ptr, align 8
  %20 = alloca i32, align 4
  %21 = alloca i32, align 4
  %22 = alloca ptr, align 8
  %23 = alloca ptr, align 8
  %24 = alloca i32, align 4
  %25 = alloca ptr, align 8
  store ptr %0, ptr %6, align 8
  store ptr %1, ptr %7, align 8
  store i32 %2, ptr %8, align 4
  store ptr %3, ptr %9, align 8
  %26 = load ptr, ptr %6, align 8
  store ptr %26, ptr %10, align 8
  %27 = call noundef ptr @_ZN2os14file_separatorEv()
  %28 = getelementptr inbounds i8, ptr %27, i64 0
  %29 = load i8, ptr %28, align 1
  store i8 %29, ptr %11, align 1
  %30 = load ptr, ptr %6, align 8
  store ptr %30, ptr %12, align 8
  br label %31

31:                                               ; preds = %52, %4
  %32 = load ptr, ptr %12, align 8
  %33 = load i8, ptr %32, align 1
  %34 = sext i8 %33 to i32
  %35 = icmp ne i32 %34, 0
  br i1 %35, label %36, label %55

36:                                               ; preds = %31
  %37 = load ptr, ptr %12, align 8
  %38 = load i8, ptr %37, align 1
  %39 = sext i8 %38 to i32
  %40 = icmp eq i32 %39, 47
  br i1 %40, label %48, label %41

41:                                               ; preds = %36
  %42 = load ptr, ptr %12, align 8
  %43 = load i8, ptr %42, align 1
  %44 = sext i8 %43 to i32
  %45 = load i8, ptr %11, align 1
  %46 = sext i8 %45 to i32
  %47 = icmp eq i32 %44, %46
  br i1 %47, label %48, label %51

48:                                               ; preds = %41, %36
  %49 = load ptr, ptr %12, align 8
  %50 = getelementptr inbounds i8, ptr %49, i64 1
  store ptr %50, ptr %10, align 8
  br label %51

51:                                               ; preds = %48, %41
  br label %52

52:                                               ; preds = %51
  %53 = load ptr, ptr %12, align 8
  %54 = getelementptr inbounds i8, ptr %53, i32 1
  store ptr %54, ptr %12, align 8
  br label %31, !llvm.loop !12

55:                                               ; preds = %31
  %56 = load ptr, ptr %6, align 8
  store ptr %56, ptr %14, align 8
  %57 = load ptr, ptr %7, align 8
  %58 = icmp ne ptr %57, null
  br i1 %58, label %59, label %69

59:                                               ; preds = %55
  %60 = load ptr, ptr %7, align 8
  %61 = call i64 @strlen(ptr noundef %60) #11
  %62 = call noundef ptr @_ZN2os14file_separatorEv()
  %63 = call i64 @strlen(ptr noundef %62) #11
  %64 = add i64 %61, %63
  %65 = load ptr, ptr %10, align 8
  %66 = call i64 @strlen(ptr noundef %65) #11
  %67 = add i64 %64, %66
  %68 = add i64 %67, 1
  store i64 %68, ptr %15, align 8
  br label %73

69:                                               ; preds = %55
  %70 = load ptr, ptr %6, align 8
  %71 = call i64 @strlen(ptr noundef %70) #11
  %72 = add i64 %71, 1
  store i64 %72, ptr %15, align 8
  br label %73

73:                                               ; preds = %69, %59
  %74 = load ptr, ptr %10, align 8
  %75 = call noundef ptr @strstr(ptr noundef %74, ptr noundef @.str.47) #11
  store ptr %75, ptr %16, align 8
  %76 = load ptr, ptr %16, align 8
  %77 = icmp eq ptr %76, null
  br i1 %77, label %78, label %79

78:                                               ; preds = %73
  br label %85

79:                                               ; preds = %73
  %80 = load ptr, ptr %16, align 8
  %81 = load ptr, ptr %14, align 8
  %82 = ptrtoint ptr %80 to i64
  %83 = ptrtoint ptr %81 to i64
  %84 = sub i64 %82, %83
  br label %85

85:                                               ; preds = %79, %78
  %86 = phi i64 [ -1, %78 ], [ %84, %79 ]
  %87 = trunc i64 %86 to i32
  store i32 %87, ptr %17, align 4
  %88 = load i32, ptr %17, align 4
  %89 = icmp sge i32 %88, 0
  br i1 %89, label %90, label %98

90:                                               ; preds = %85
  %91 = getelementptr inbounds [32 x i8], ptr %13, i64 0, i64 0
  %92 = load i32, ptr %8, align 4
  %93 = call i32 (ptr, i64, ptr, ...) @jio_snprintf(ptr noundef %91, i64 noundef 32, ptr noundef @.str.48, i32 noundef %92)
  %94 = getelementptr inbounds [32 x i8], ptr %13, i64 0, i64 0
  %95 = call i64 @strlen(ptr noundef %94) #11
  %96 = load i64, ptr %15, align 8
  %97 = add i64 %96, %95
  store i64 %97, ptr %15, align 8
  br label %98

98:                                               ; preds = %90, %85
  %99 = load ptr, ptr %10, align 8
  %100 = call noundef ptr @strstr(ptr noundef %99, ptr noundef @.str.49) #11
  store ptr %100, ptr %16, align 8
  %101 = load ptr, ptr %16, align 8
  %102 = icmp eq ptr %101, null
  br i1 %102, label %103, label %104

103:                                              ; preds = %98
  br label %110

104:                                              ; preds = %98
  %105 = load ptr, ptr %16, align 8
  %106 = load ptr, ptr %14, align 8
  %107 = ptrtoint ptr %105 to i64
  %108 = ptrtoint ptr %106 to i64
  %109 = sub i64 %107, %108
  br label %110

110:                                              ; preds = %104, %103
  %111 = phi i64 [ -1, %103 ], [ %109, %104 ]
  %112 = trunc i64 %111 to i32
  store i32 %112, ptr %18, align 4
  %113 = load i32, ptr %18, align 4
  %114 = icmp sge i32 %113, 0
  br i1 %114, label %115, label %120

115:                                              ; preds = %110
  %116 = load ptr, ptr %9, align 8
  %117 = call i64 @strlen(ptr noundef %116) #11
  %118 = load i64, ptr %15, align 8
  %119 = add i64 %118, %117
  store i64 %119, ptr %15, align 8
  br label %120

120:                                              ; preds = %115, %110
  %121 = load i64, ptr %15, align 8
  %122 = icmp ugt i64 %121, 4097
  br i1 %122, label %123, label %124

123:                                              ; preds = %120
  store ptr null, ptr %5, align 8
  br label %243

124:                                              ; preds = %120
  %125 = load i64, ptr %15, align 8
  %126 = mul i64 %125, 1
  %127 = call noundef ptr @_Z12AllocateHeapm8MEMFLAGSN17AllocFailStrategy13AllocFailEnumE(i64 noundef %126, i8 noundef zeroext 9, i32 noundef 0)
  store ptr %127, ptr %19, align 8
  %128 = load ptr, ptr %19, align 8
  %129 = call ptr @strcpy(ptr noundef %128, ptr noundef @.str.50) #6
  %130 = load ptr, ptr %7, align 8
  %131 = icmp ne ptr %130, null
  br i1 %131, label %132, label %140

132:                                              ; preds = %124
  %133 = load ptr, ptr %19, align 8
  %134 = load ptr, ptr %7, align 8
  %135 = call ptr @strcat(ptr noundef %133, ptr noundef %134) #6
  %136 = load ptr, ptr %19, align 8
  %137 = call noundef ptr @_ZN2os14file_separatorEv()
  %138 = call ptr @strcat(ptr noundef %136, ptr noundef %137) #6
  %139 = load ptr, ptr %10, align 8
  store ptr %139, ptr %14, align 8
  br label %140

140:                                              ; preds = %132, %124
  store i32 -1, ptr %20, align 4
  store i32 -1, ptr %21, align 4
  store ptr null, ptr %22, align 8
  store ptr null, ptr %23, align 8
  %141 = load i32, ptr %17, align 4
  %142 = icmp sge i32 %141, 0
  br i1 %142, label %143, label %161

143:                                              ; preds = %140
  %144 = load i32, ptr %18, align 4
  %145 = icmp sge i32 %144, 0
  br i1 %145, label %146, label %161

146:                                              ; preds = %143
  %147 = load i32, ptr %17, align 4
  %148 = load i32, ptr %18, align 4
  %149 = icmp slt i32 %147, %148
  br i1 %149, label %150, label %155

150:                                              ; preds = %146
  %151 = load i32, ptr %17, align 4
  store i32 %151, ptr %20, align 4
  %152 = getelementptr inbounds [32 x i8], ptr %13, i64 0, i64 0
  store ptr %152, ptr %22, align 8
  %153 = load i32, ptr %18, align 4
  store i32 %153, ptr %21, align 4
  %154 = load ptr, ptr %9, align 8
  store ptr %154, ptr %23, align 8
  br label %160

155:                                              ; preds = %146
  %156 = load i32, ptr %18, align 4
  store i32 %156, ptr %20, align 4
  %157 = load ptr, ptr %9, align 8
  store ptr %157, ptr %22, align 8
  %158 = load i32, ptr %17, align 4
  store i32 %158, ptr %21, align 4
  %159 = getelementptr inbounds [32 x i8], ptr %13, i64 0, i64 0
  store ptr %159, ptr %23, align 8
  br label %160

160:                                              ; preds = %155, %150
  br label %175

161:                                              ; preds = %143, %140
  %162 = load i32, ptr %17, align 4
  %163 = icmp sge i32 %162, 0
  br i1 %163, label %164, label %167

164:                                              ; preds = %161
  %165 = load i32, ptr %17, align 4
  store i32 %165, ptr %20, align 4
  %166 = getelementptr inbounds [32 x i8], ptr %13, i64 0, i64 0
  store ptr %166, ptr %22, align 8
  br label %174

167:                                              ; preds = %161
  %168 = load i32, ptr %18, align 4
  %169 = icmp sge i32 %168, 0
  br i1 %169, label %170, label %173

170:                                              ; preds = %167
  %171 = load i32, ptr %18, align 4
  store i32 %171, ptr %20, align 4
  %172 = load ptr, ptr %9, align 8
  store ptr %172, ptr %22, align 8
  br label %173

173:                                              ; preds = %170, %167
  br label %174

174:                                              ; preds = %173, %164
  br label %175

175:                                              ; preds = %174, %160
  %176 = load ptr, ptr %19, align 8
  %177 = call i64 @strlen(ptr noundef %176) #11
  %178 = trunc i64 %177 to i32
  store i32 %178, ptr %24, align 4
  %179 = load ptr, ptr %14, align 8
  store ptr %179, ptr %25, align 8
  %180 = load i32, ptr %20, align 4
  %181 = icmp sge i32 %180, 0
  br i1 %181, label %182, label %238

182:                                              ; preds = %175
  %183 = load ptr, ptr %14, align 8
  %184 = load i32, ptr %20, align 4
  %185 = sext i32 %184 to i64
  %186 = getelementptr inbounds i8, ptr %183, i64 %185
  %187 = getelementptr inbounds i8, ptr %186, i64 2
  store ptr %187, ptr %25, align 8
  %188 = load ptr, ptr %19, align 8
  %189 = load i32, ptr %24, align 4
  %190 = sext i32 %189 to i64
  %191 = getelementptr inbounds i8, ptr %188, i64 %190
  %192 = load ptr, ptr %14, align 8
  %193 = load i32, ptr %20, align 4
  %194 = sext i32 %193 to i64
  %195 = call ptr @strncpy(ptr noundef %191, ptr noundef %192, i64 noundef %194) #6
  %196 = load ptr, ptr %19, align 8
  %197 = load i32, ptr %24, align 4
  %198 = load i32, ptr %20, align 4
  %199 = add nsw i32 %197, %198
  %200 = sext i32 %199 to i64
  %201 = getelementptr inbounds i8, ptr %196, i64 %200
  %202 = load ptr, ptr %22, align 8
  %203 = call ptr @strcpy(ptr noundef %201, ptr noundef %202) #6
  %204 = load ptr, ptr %19, align 8
  %205 = call i64 @strlen(ptr noundef %204) #11
  %206 = trunc i64 %205 to i32
  store i32 %206, ptr %24, align 4
  %207 = load i32, ptr %21, align 4
  %208 = icmp sge i32 %207, 0
  br i1 %208, label %209, label %237

209:                                              ; preds = %182
  %210 = load ptr, ptr %19, align 8
  %211 = load i32, ptr %24, align 4
  %212 = sext i32 %211 to i64
  %213 = getelementptr inbounds i8, ptr %210, i64 %212
  %214 = load ptr, ptr %25, align 8
  %215 = load i32, ptr %21, align 4
  %216 = load i32, ptr %20, align 4
  %217 = sub nsw i32 %215, %216
  %218 = sub nsw i32 %217, 2
  %219 = sext i32 %218 to i64
  %220 = call ptr @strncpy(ptr noundef %213, ptr noundef %214, i64 noundef %219) #6
  %221 = load ptr, ptr %19, align 8
  %222 = load i32, ptr %24, align 4
  %223 = load i32, ptr %21, align 4
  %224 = add nsw i32 %222, %223
  %225 = load i32, ptr %20, align 4
  %226 = sub nsw i32 %224, %225
  %227 = sub nsw i32 %226, 2
  %228 = sext i32 %227 to i64
  %229 = getelementptr inbounds i8, ptr %221, i64 %228
  %230 = load ptr, ptr %23, align 8
  %231 = call ptr @strcpy(ptr noundef %229, ptr noundef %230) #6
  %232 = load ptr, ptr %14, align 8
  %233 = load i32, ptr %21, align 4
  %234 = sext i32 %233 to i64
  %235 = getelementptr inbounds i8, ptr %232, i64 %234
  %236 = getelementptr inbounds i8, ptr %235, i64 2
  store ptr %236, ptr %25, align 8
  br label %237

237:                                              ; preds = %209, %182
  br label %238

238:                                              ; preds = %237, %175
  %239 = load ptr, ptr %19, align 8
  %240 = load ptr, ptr %25, align 8
  %241 = call ptr @strcat(ptr noundef %239, ptr noundef %240) #6
  %242 = load ptr, ptr %19, align 8
  store ptr %242, ptr %5, align 8
  br label %243

243:                                              ; preds = %238, %123
  %244 = load ptr, ptr %5, align 8
  ret ptr %244
}

; Function Attrs: mustprogress nounwind uwtable
define internal noundef ptr @_ZL19get_datetime_stringPcm(ptr noundef %0, i64 noundef %1) #1 {
  %3 = alloca ptr, align 8
  %4 = alloca i64, align 8
  %5 = alloca i32, align 4
  store ptr %0, ptr %3, align 8
  store i64 %1, ptr %4, align 8
  %6 = load ptr, ptr %3, align 8
  %7 = load i64, ptr %4, align 8
  %8 = call noundef ptr @_ZN2os17local_time_stringEPcm(ptr noundef %6, i64 noundef %7)
  %9 = load ptr, ptr %3, align 8
  %10 = call i64 @strlen(ptr noundef %9) #11
  %11 = trunc i64 %10 to i32
  store i32 %11, ptr %5, align 4
  br label %12

12:                                               ; preds = %43, %2
  %13 = load i32, ptr %5, align 4
  %14 = add nsw i32 %13, -1
  store i32 %14, ptr %5, align 4
  %15 = icmp sge i32 %14, 0
  br i1 %15, label %16, label %44

16:                                               ; preds = %12
  %17 = load ptr, ptr %3, align 8
  %18 = load i32, ptr %5, align 4
  %19 = sext i32 %18 to i64
  %20 = getelementptr inbounds i8, ptr %17, i64 %19
  %21 = load i8, ptr %20, align 1
  %22 = sext i8 %21 to i32
  %23 = icmp eq i32 %22, 32
  br i1 %23, label %24, label %29

24:                                               ; preds = %16
  %25 = load ptr, ptr %3, align 8
  %26 = load i32, ptr %5, align 4
  %27 = sext i32 %26 to i64
  %28 = getelementptr inbounds i8, ptr %25, i64 %27
  store i8 95, ptr %28, align 1
  br label %43

29:                                               ; preds = %16
  %30 = load ptr, ptr %3, align 8
  %31 = load i32, ptr %5, align 4
  %32 = sext i32 %31 to i64
  %33 = getelementptr inbounds i8, ptr %30, i64 %32
  %34 = load i8, ptr %33, align 1
  %35 = sext i8 %34 to i32
  %36 = icmp eq i32 %35, 58
  br i1 %36, label %37, label %42

37:                                               ; preds = %29
  %38 = load ptr, ptr %3, align 8
  %39 = load i32, ptr %5, align 4
  %40 = sext i32 %39 to i64
  %41 = getelementptr inbounds i8, ptr %38, i64 %40
  store i8 45, ptr %41, align 1
  br label %42

42:                                               ; preds = %37, %29
  br label %43

43:                                               ; preds = %42, %24
  br label %12, !llvm.loop !11

44:                                               ; preds = %12
  %45 = load ptr, ptr %3, align 8
  ret ptr %45
}

; Function Attrs: mustprogress nounwind uwtable
define hidden noundef ptr @_Z13make_log_namePKcS0_(ptr noundef %0, ptr noundef %1) #1 {
  %3 = alloca ptr, align 8
  %4 = alloca ptr, align 8
  %5 = alloca [32 x i8], align 16
  store ptr %0, ptr %3, align 8
  store ptr %1, ptr %4, align 8
  %6 = getelementptr inbounds [32 x i8], ptr %5, i64 0, i64 0
  %7 = call noundef ptr @_ZL19get_datetime_stringPcm(ptr noundef %6, i64 noundef 32)
  %8 = load ptr, ptr %3, align 8
  %9 = load ptr, ptr %4, align 8
  %10 = call noundef i32 @_ZN2os18current_process_idEv()
  %11 = getelementptr inbounds [32 x i8], ptr %5, i64 0, i64 0
  %12 = call noundef ptr @_ZL22make_log_name_internalPKcS0_iS0_(ptr noundef %8, ptr noundef %9, i32 noundef %10, ptr noundef %11)
  ret ptr %12
}