; Function Attrs: mustprogress nounwind uwtable
define hidden noundef ptr @_Z13make_log_namePKcS0_(ptr noundef %0, ptr noundef readonly %1) local_unnamed_addr #0 {
  %3 = alloca [32 x i8], align 16
  %4 = alloca [32 x i8], align 16
  %5 = call noundef ptr @_ZN2os17local_time_stringEPcm(ptr noundef nonnull %4, i64 noundef 32) #21
  %6 = call i64 @strlen(ptr noundef nonnull dereferenceable(1) %4) #22
  %7 = trunc i64 %6 to i32
  %8 = icmp sgt i32 %7, 0
  br i1 %8, label %.lr.ph.preheader.i, label %_ZL19get_datetime_stringPcm.exit

.lr.ph.preheader.i:                               ; preds = %2
  %9 = and i64 %6, 2147483647
  br label %.lr.ph.i

.lr.ph.i:                                         ; preds = %13, %.lr.ph.preheader.i
  %indvars.iv.i = phi i64 [ %9, %.lr.ph.preheader.i ], [ %indvars.iv.next.i, %13 ]
  %indvars.iv.next.i = add nsw i64 %indvars.iv.i, -1
  %10 = getelementptr inbounds i8, ptr %4, i64 %indvars.iv.next.i
  %11 = load i8, ptr %10, align 1
  switch i8 %11, label %13 [
    i8 32, label %.sink.split.i
    i8 58, label %12
  ]

12:                                               ; preds = %.lr.ph.i
  br label %.sink.split.i

.sink.split.i:                                    ; preds = %12, %.lr.ph.i
  %.sink.i = phi i8 [ 45, %12 ], [ 95, %.lr.ph.i ]
  store i8 %.sink.i, ptr %10, align 1
  br label %13

13:                                               ; preds = %.sink.split.i, %.lr.ph.i
  %14 = icmp ugt i64 %indvars.iv.i, 1
  br i1 %14, label %.lr.ph.i, label %_ZL19get_datetime_stringPcm.exit, !llvm.loop !11

_ZL19get_datetime_stringPcm.exit:                 ; preds = %13, %2
  %15 = call noundef i32 @_ZN2os18current_process_idEv() #21
  call void @llvm.lifetime.start.p0(i64 32, ptr nonnull %3)
  %16 = call noundef ptr @_ZN2os14file_separatorEv() #21
  %17 = load i8, ptr %16, align 1
  br label %18

18:                                               ; preds = %24, %_ZL19get_datetime_stringPcm.exit
  %.087.i = phi ptr [ %0, %_ZL19get_datetime_stringPcm.exit ], [ %25, %24 ]
  %.086.i = phi ptr [ %0, %_ZL19get_datetime_stringPcm.exit ], [ %.1.i, %24 ]
  %19 = load i8, ptr %.087.i, align 1
  switch i8 %19, label %20 [
    i8 0, label %26
    i8 47, label %22
  ]

20:                                               ; preds = %18
  %21 = icmp eq i8 %19, %17
  br i1 %21, label %22, label %24

22:                                               ; preds = %20, %18
  %23 = getelementptr inbounds i8, ptr %.087.i, i64 1
  br label %24

24:                                               ; preds = %22, %20
  %.1.i = phi ptr [ %23, %22 ], [ %.086.i, %20 ]
  %25 = getelementptr inbounds i8, ptr %.087.i, i64 1
  br label %18, !llvm.loop !12

26:                                               ; preds = %18
  %.not97.i = icmp eq ptr %1, null
  br i1 %.not97.i, label %34, label %27

27:                                               ; preds = %26
  %28 = call i64 @strlen(ptr noundef nonnull readonly dereferenceable(1) %1) #22
  %29 = call noundef ptr @_ZN2os14file_separatorEv() #21
  %30 = call i64 @strlen(ptr noundef nonnull dereferenceable(1) %29) #22
  %31 = add i64 %30, %28
  %32 = call i64 @strlen(ptr noundef nonnull dereferenceable(1) %.086.i) #22
  %33 = add i64 %31, %32
  br label %36

34:                                               ; preds = %26
  %35 = call i64 @strlen(ptr noundef nonnull dereferenceable(1) %0) #22
  br label %36

36:                                               ; preds = %34, %27
  %.088.in.i = phi i64 [ %33, %27 ], [ %35, %34 ]
  %.088.i = add i64 %.088.in.i, 1
  %37 = call noundef ptr @strstr(ptr noundef nonnull dereferenceable(1) %.086.i, ptr noundef nonnull dereferenceable(1) @.str.47) #22
  %38 = icmp eq ptr %37, null
  %39 = ptrtoint ptr %37 to i64
  %40 = ptrtoint ptr %0 to i64
  %41 = sub i64 %39, %40
  %42 = trunc i64 %41 to i32
  %43 = select i1 %38, i32 -1, i32 %42
  %44 = icmp sgt i32 %43, -1
  br i1 %44, label %45, label %49

45:                                               ; preds = %36
  %46 = call i32 (ptr, i64, ptr, ...) @jio_snprintf(ptr noundef nonnull %3, i64 noundef 32, ptr noundef nonnull @.str.48, i32 noundef %15) #21
  %47 = call i64 @strlen(ptr noundef nonnull dereferenceable(1) %3) #22
  %48 = add i64 %47, %.088.i
  br label %49

49:                                               ; preds = %45, %36
  %.189.i = phi i64 [ %48, %45 ], [ %.088.i, %36 ]
  %50 = call noundef ptr @strstr(ptr noundef nonnull dereferenceable(1) %.086.i, ptr noundef nonnull dereferenceable(1) @.str.49) #22
  %51 = icmp eq ptr %50, null
  %52 = ptrtoint ptr %50 to i64
  %53 = sub i64 %52, %40
  %54 = trunc i64 %53 to i32
  %55 = select i1 %51, i32 -1, i32 %54
  %56 = icmp sgt i32 %55, -1
  br i1 %56, label %57, label %60

57:                                               ; preds = %49
  %58 = call i64 @strlen(ptr noundef nonnull readonly dereferenceable(1) %4) #22
  %59 = add i64 %58, %.189.i
  br label %60

60:                                               ; preds = %57, %49
  %.2.i = phi i64 [ %59, %57 ], [ %.189.i, %49 ]
  %61 = icmp ugt i64 %.2.i, 4097
  br i1 %61, label %_ZL22make_log_name_internalPKcS0_iS0_.exit, label %62

62:                                               ; preds = %60
  %63 = call noundef ptr @_Z12AllocateHeapm8MEMFLAGSN17AllocFailStrategy13AllocFailEnumE(i64 noundef %.2.i, i8 noundef zeroext 9, i32 noundef 0) #21
  store i8 0, ptr %63, align 1
  br i1 %.not97.i, label %68, label %64

64:                                               ; preds = %62
  %65 = call ptr @strcat(ptr noundef nonnull dereferenceable(1) %63, ptr noundef nonnull readonly dereferenceable(1) %1) #21
  %66 = call noundef ptr @_ZN2os14file_separatorEv() #21
  %67 = call ptr @strcat(ptr noundef nonnull dereferenceable(1) %63, ptr noundef nonnull dereferenceable(1) %66) #21
  br label %68

68:                                               ; preds = %64, %62
  %.090.i = phi ptr [ %.086.i, %64 ], [ %0, %62 ]
  %69 = or i32 %55, %43
  %or.cond.i = icmp sgt i32 %69, -1
  br i1 %or.cond.i, label %72, label %70

70:                                               ; preds = %68
  br i1 %44, label %.thread.i, label %71

71:                                               ; preds = %70
  br i1 %56, label %.thread.i, label %.thread111.i

72:                                               ; preds = %68
  %73 = icmp slt i32 %43, %55
  %..i = call i32 @llvm.smin.i32(i32 %43, i32 %55)
  %.99.i = call i32 @llvm.smax.i32(i32 %43, i32 %55)
  %.100.i = select i1 %73, ptr %3, ptr %4
  %.101.i = select i1 %73, ptr %4, ptr %3
  %74 = icmp sgt i32 %..i, -1
  br i1 %74, label %.thread.i, label %.thread111.i

.thread.i:                                        ; preds = %72, %71, %70
  %.081110.i = phi ptr [ %.101.i, %72 ], [ null, %70 ], [ null, %71 ]
  %.082109.i = phi ptr [ %.100.i, %72 ], [ %3, %70 ], [ %4, %71 ]
  %.083108.i = phi i32 [ %.99.i, %72 ], [ -1, %70 ], [ -1, %71 ]
  %.084107.i = phi i32 [ %..i, %72 ], [ %42, %70 ], [ %54, %71 ]
  %75 = call i64 @strlen(ptr noundef nonnull dereferenceable(1) %63) #22
  %76 = trunc i64 %75 to i32
  %77 = zext nneg i32 %.084107.i to i64
  %78 = getelementptr inbounds i8, ptr %.090.i, i64 %77
  %79 = getelementptr inbounds i8, ptr %78, i64 2
  %sext.i = shl i64 %75, 32
  %80 = ashr exact i64 %sext.i, 32
  %81 = getelementptr inbounds i8, ptr %63, i64 %80
  %82 = call ptr @strncpy(ptr noundef nonnull %81, ptr noundef %.090.i, i64 noundef %77) #21
  %83 = add nsw i32 %.084107.i, %76
  %84 = sext i32 %83 to i64
  %85 = getelementptr inbounds i8, ptr %63, i64 %84
  %86 = call ptr @strcpy(ptr noundef nonnull dereferenceable(1) %85, ptr noundef nonnull dereferenceable(1) %.082109.i) #21
  %87 = icmp sgt i32 %.083108.i, -1
  br i1 %87, label %88, label %.thread111.i

88:                                               ; preds = %.thread.i
  %89 = call i64 @strlen(ptr noundef nonnull dereferenceable(1) %63) #22
  %90 = trunc i64 %89 to i32
  %sext98.i = shl i64 %89, 32
  %91 = ashr exact i64 %sext98.i, 32
  %92 = getelementptr inbounds i8, ptr %63, i64 %91
  %93 = add nsw i32 %.083108.i, -2
  %94 = sub i32 %93, %.084107.i
  %95 = sext i32 %94 to i64
  %96 = call ptr @strncpy(ptr noundef nonnull %92, ptr noundef nonnull %79, i64 noundef %95) #21
  %97 = sub i32 %.083108.i, %.084107.i
  %98 = add i32 %97, %90
  %99 = sext i32 %98 to i64
  %100 = getelementptr i8, ptr %63, i64 %99
  %101 = getelementptr i8, ptr %100, i64 -2
  %102 = call ptr @strcpy(ptr noundef nonnull dereferenceable(1) %101, ptr noundef nonnull dereferenceable(1) %.081110.i) #21
  %103 = zext nneg i32 %.083108.i to i64
  %104 = getelementptr inbounds i8, ptr %.090.i, i64 %103
  %105 = getelementptr inbounds i8, ptr %104, i64 2
  br label %.thread111.i

.thread111.i:                                     ; preds = %88, %.thread.i, %72, %71
  %.0.i = phi ptr [ %105, %88 ], [ %79, %.thread.i ], [ %.090.i, %72 ], [ %.090.i, %71 ]
  %106 = call ptr @strcat(ptr noundef nonnull dereferenceable(1) %63, ptr noundef nonnull dereferenceable(1) %.0.i) #21
  br label %_ZL22make_log_name_internalPKcS0_iS0_.exit

_ZL22make_log_name_internalPKcS0_iS0_.exit:       ; preds = %60, %.thread111.i
  %.085.i = phi ptr [ %63, %.thread111.i ], [ null, %60 ]
  call void @llvm.lifetime.end.p0(i64 32, ptr nonnull %3)
  ret ptr %.085.i
}